target datalayout = "e-m:e-p270:32:32-p271:32:32-p272:64:64-i64:64-i128:128-f80:128-n8:16:32:64-S128"
target triple = "x86_64-pc-linux-gnu"

; Function Attrs: mustprogress nounwind uwtable
define linkonce_odr noundef zeroext i1 @_ZSt8isfinited(double noundef %0) #2 comdat {
  %2 = alloca double, align 8
  store double %0, ptr %2, align 8, !tbaa !10
  %3 = load double, ptr %2, align 8, !tbaa !10
  %4 = call i1 @llvm.is.fpclass.f64(double %3, i32 504)
  ret i1 %4
}

; Function Attrs: mustprogress uwtable
define hidden noundef i64 @_ZN5ceres8internal16FindInvalidValueElPKd(i64 noundef %0, ptr noundef %1) #0 {
  %3 = alloca i64, align 8
  %4 = alloca i64, align 8
  %5 = alloca ptr, align 8
  %6 = alloca i64, align 8
  %7 = alloca i32, align 4
  store i64 %0, ptr %4, align 8, !tbaa !3
  store ptr %1, ptr %5, align 8, !tbaa !7
  %8 = load ptr, ptr %5, align 8, !tbaa !7
  %9 = icmp eq ptr %8, null
  br i1 %9, label %10, label %12

10:                                               ; preds = %2
  %11 = load i64, ptr %4, align 8, !tbaa !3
  store i64 %11, ptr %3, align 8
  br label %40

12:                                               ; preds = %2
  call void @llvm.lifetime.start.p0(i64 8, ptr %6) #15
  store i64 0, ptr %6, align 8, !tbaa !3
  br label %13

13:                                               ; preds = %33, %12
  %14 = load i64, ptr %6, align 8, !tbaa !3
  %15 = load i64, ptr %4, align 8, !tbaa !3
  %16 = icmp slt i64 %14, %15
  br i1 %16, label %18, label %17

17:                                               ; preds = %13
  store i32 2, ptr %7, align 4
  br label %36

18:                                               ; preds = %13
  %19 = load ptr, ptr %5, align 8, !tbaa !7
  %20 = load i64, ptr %6, align 8, !tbaa !3
  %21 = getelementptr inbounds double, ptr %19, i64 %20
  %22 = load double, ptr %21, align 8, !tbaa !10
  %23 = call noundef zeroext i1 @_ZSt8isfinited(double noundef %22)
  br i1 %23, label %24, label %30

24:                                               ; preds = %18
  %25 = load ptr, ptr %5, align 8, !tbaa !7
  %26 = load i64, ptr %6, align 8, !tbaa !3
  %27 = getelementptr inbounds double, ptr %25, i64 %26
  %28 = load double, ptr %27, align 8, !tbaa !10
  %29 = fcmp oeq double %28, 1.000000e+302
  br i1 %29, label %30, label %32

30:                                               ; preds = %24, %18
  %31 = load i64, ptr %6, align 8, !tbaa !3
  store i64 %31, ptr %3, align 8
  store i32 1, ptr %7, align 4
  br label %36

32:                                               ; preds = %24
  br label %33

33:                                               ; preds = %32
  %34 = load i64, ptr %6, align 8, !tbaa !3
  %35 = add nsw i64 %34, 1
  store i64 %35, ptr %6, align 8, !tbaa !3
  br label %13, !llvm.loop !14

36:                                               ; preds = %30, %17
  call void @llvm.lifetime.end.p0(i64 8, ptr %6) #15
  %37 = load i32, ptr %7, align 4
  switch i32 %37, label %42 [
    i32 2, label %38
    i32 1, label %40
  ]

38:                                               ; preds = %36
  %39 = load i64, ptr %4, align 8, !tbaa !3
  store i64 %39, ptr %3, align 8
  br label %40

40:                                               ; preds = %38, %36, %10
  %41 = load i64, ptr %3, align 8
  ret i64 %41

42:                                               ; preds = %36
  unreachable
}