; Function Attrs: mustprogress nofree norecurse nosync nounwind willreturn memory(argmem: read) uwtable
define hidden noundef i64 @_ZN5ceres8internal16FindInvalidValueElPKd(i64 noundef %0, ptr noundef readonly captures(address_is_null) %1) local_unnamed_addr #0 {
  %3 = icmp eq ptr %1, null
  br i1 %3, label %11, label %.preheader

.preheader:                                       ; preds = %2
  %.not15 = icmp sgt i64 %0, 0
  br i1 %.not15, label %.lr.ph, label %._crit_edge

.lr.ph:                                           ; preds = %.preheader, %9
  %.01216 = phi i64 [ %10, %9 ], [ 0, %.preheader ]
  %4 = getelementptr inbounds nuw double, ptr %1, i64 %.01216
  %5 = load double, ptr %4, align 8, !tbaa !3
  %6 = tail call double @llvm.fabs.f64(double %5)
  %7 = fcmp ueq double %6, 0x7FF0000000000000
  %8 = fcmp oeq double %5, 1.000000e+302
  %or.cond = select i1 %7, i1 true, i1 %8
  br i1 %or.cond, label %._crit_edge, label %9

9:                                                ; preds = %.lr.ph
  %10 = add nuw nsw i64 %.01216, 1
  %exitcond.not = icmp eq i64 %10, %0
  br i1 %exitcond.not, label %._crit_edge, label %.lr.ph, !llvm.loop !9

._crit_edge:                                      ; preds = %9, %.lr.ph, %.preheader
  %.012.lcssa = phi i64 [ 0, %.preheader ], [ %.01216, %.lr.ph ], [ %0, %9 ]
  %spec.select = tail call i64 @llvm.smin.i64(i64 %.012.lcssa, i64 %0)
  br label %11

11:                                               ; preds = %._crit_edge, %2
  %.013 = phi i64 [ %0, %2 ], [ %spec.select, %._crit_edge ]
  ret i64 %.013
}